target datalayout = "e-m:e-p270:32:32-p271:32:32-p272:64:64-i64:64-i128:128-f80:128-n8:16:32:64-S128"
target triple = "x86_64-pc-linux-gnu"

%struct.darktable_t = type { %struct.dt_codepath_t, i32, i32, ptr, ptr, ptr, ptr, ptr, ptr, ptr, ptr, ptr, ptr, ptr, ptr, ptr, ptr, ptr, ptr, ptr, ptr, ptr, ptr, ptr, ptr, ptr, ptr, ptr, ptr, ptr, [64 x %struct.dt_pthread_mutex_t], %struct.dt_pthread_mutex_t, %struct.dt_pthread_mutex_t, %struct.dt_pthread_mutex_t, %struct.dt_pthread_mutex_t, %struct.dt_pthread_mutex_t, ptr, ptr, ptr, ptr, ptr, ptr, ptr, ptr, ptr, ptr, ptr, ptr, ptr, %struct.dt_lua_state_t, ptr, double, ptr, i32, [47 x i32], i32, i32, ptr, ptr, %struct.dt_sys_resources_t, %struct.dt_backthumb_t, %struct.dt_gimp_t }
%struct.dt_codepath_t = type { i8, [3 x i8] }
%struct.dt_pthread_mutex_t = type { %union.pthread_mutex_t }
%union.pthread_mutex_t = type { %struct.__pthread_mutex_s }
%struct.__pthread_mutex_s = type { i32, i32, i32, i32, i32, i16, i16, %struct.__pthread_internal_list }
%struct.__pthread_internal_list = type { ptr, ptr }
%struct.dt_lua_state_t = type { i32 }
%struct.dt_sys_resources_t = type { i64, i64, ptr, ptr, i32 }
%struct.dt_backthumb_t = type { double, double, i32, i32, i32, i32 }
%struct.dt_gimp_t = type { i32, ptr, ptr, i32, i32 }
%struct.dt_gui_gtk_t = type { ptr, %struct.dt_gui_widgets_t, %struct.dt_gui_scrollbars_t, i32, ptr, i32, [39 x %struct._GdkRGBA], i32, i32, i32, i32, i32, double, double, double, double, ptr, double, double, double, double, i32, i32, [4096 x i8], i32, i32, i32, %struct.dt_pthread_mutex_t }
%struct.dt_gui_widgets_t = type { ptr, ptr, ptr, ptr, i32, i32, i32 }
%struct.dt_gui_scrollbars_t = type { ptr, ptr, i32 }
%struct._GdkRGBA = type { double, double, double, double }

@.str = private unnamed_addr constant [13 x i8] c"about-dialog\00", align 1
@.str.1 = private unnamed_addr constant [10 x i8] c"darktable\00", align 1
@darktable_package_version = external constant [0 x i8], align 1
@.str.2 = private unnamed_addr constant [34 x i8] c"copyright (c) the authors 2009-%s\00", align 1
@darktable_last_commit_year = external constant [0 x i8], align 1
@.str.3 = private unnamed_addr constant [49 x i8] c"organize and develop images from digital cameras\00", align 1
@.str.4 = private unnamed_addr constant [27 x i8] c"https://www.darktable.org/\00", align 1
@.str.5 = private unnamed_addr constant [8 x i8] c"website\00", align 1
@.str.6 = private unnamed_addr constant [13 x i8] c"darktable-%d\00", align 1
@.str.7 = private unnamed_addr constant [54 x i8] c"all those of you that made previous releases possible\00", align 1
@darktable_show_about_dialog.section1 = internal global [16 x ptr] [ptr @.str.8, ptr @.str.9, ptr @.str.10, ptr @.str.11, ptr @.str.12, ptr @.str.13, ptr @.str.14, ptr @.str.15, ptr @.str.16, ptr @.str.17, ptr @.str.18, ptr @.str.19, ptr @.str.20, ptr @.str.21, ptr @.str.22, ptr null], align 16
@.str.23 = private unnamed_addr constant [11 x i8] c"Developers\00", align 1
@.str.32 = private unnamed_addr constant [12 x i8] c"Translators\00", align 1
@darktable_show_about_dialog.section3 = internal global [5 x ptr] [ptr @.str.33, ptr @.str.22, ptr @.str.34, ptr @.str.14, ptr null], align 16
@.str.35 = private unnamed_addr constant [22 x i8] c"rawspeed contributors\00", align 1
@darktable_show_about_dialog.section4 = internal global [2 x ptr] [ptr @.str.22, ptr null], align 16
@.str.36 = private unnamed_addr constant [25 x i8] c"integration contributors\00", align 1
@.str.37 = private unnamed_addr constant [7 x i8] c"and...\00", align 1
@.str.38 = private unnamed_addr constant [19 x i8] c"translator-credits\00", align 1
@darktable = external global %struct.darktable_t, align 8

; Function Attrs: nounwind uwtable
define void @darktable_show_about_dialog() #0 {
  %1 = alloca ptr, align 8
  %2 = alloca ptr, align 8
  %3 = alloca i32, align 4
  %4 = alloca ptr, align 8
  %5 = alloca ptr, align 8
  %6 = alloca [2 x ptr], align 16
  call void @llvm.lifetime.start.p0(i64 8, ptr %1) #5
  %7 = call ptr @gtk_about_dialog_new()
  store ptr %7, ptr %1, align 8, !tbaa !6
  %8 = load ptr, ptr %1, align 8, !tbaa !6
  call void @gtk_widget_set_name(ptr noundef %8, ptr noundef @.str)
  %9 = load ptr, ptr %1, align 8, !tbaa !6
  %10 = call i64 @gtk_about_dialog_get_type() #6
  %11 = call ptr @g_type_check_instance_cast(ptr noundef %9, i64 noundef %10)
  call void @gtk_about_dialog_set_program_name(ptr noundef %11, ptr noundef @.str.1)
  %12 = load ptr, ptr %1, align 8, !tbaa !6
  %13 = call i64 @gtk_about_dialog_get_type() #6
  %14 = call ptr @g_type_check_instance_cast(ptr noundef %12, i64 noundef %13)
  call void @gtk_about_dialog_set_version(ptr noundef %14, ptr noundef @darktable_package_version)
  call void @llvm.lifetime.start.p0(i64 8, ptr %2) #5
  %15 = call ptr @dcgettext(ptr noundef null, ptr noundef @.str.2, i32 noundef 5) #5
  %16 = call noalias ptr (ptr, ...) @g_strdup_printf(ptr noundef %15, ptr noundef @darktable_last_commit_year)
  store ptr %16, ptr %2, align 8, !tbaa !11
  %17 = load ptr, ptr %1, align 8, !tbaa !6
  %18 = call i64 @gtk_about_dialog_get_type() #6
  %19 = call ptr @g_type_check_instance_cast(ptr noundef %17, i64 noundef %18)
  %20 = load ptr, ptr %2, align 8, !tbaa !11
  call void @gtk_about_dialog_set_copyright(ptr noundef %19, ptr noundef %20)
  %21 = load ptr, ptr %2, align 8, !tbaa !11
  call void @g_free(ptr noundef %21)
  %22 = load ptr, ptr %1, align 8, !tbaa !6
  %23 = call i64 @gtk_about_dialog_get_type() #6
  %24 = call ptr @g_type_check_instance_cast(ptr noundef %22, i64 noundef %23)
  %25 = call ptr @dcgettext(ptr noundef null, ptr noundef @.str.3, i32 noundef 5) #5
  call void @gtk_about_dialog_set_comments(ptr noundef %24, ptr noundef %25)
  %26 = load ptr, ptr %1, align 8, !tbaa !6
  %27 = call i64 @gtk_about_dialog_get_type() #6
  %28 = call ptr @g_type_check_instance_cast(ptr noundef %26, i64 noundef %27)
  call void @gtk_about_dialog_set_website(ptr noundef %28, ptr noundef @.str.4)
  %29 = load ptr, ptr %1, align 8, !tbaa !6
  %30 = call i64 @gtk_about_dialog_get_type() #6
  %31 = call ptr @g_type_check_instance_cast(ptr noundef %29, i64 noundef %30)
  call void @gtk_about_dialog_set_website_label(ptr noundef %31, ptr noundef @.str.5)
  call void @llvm.lifetime.start.p0(i64 4, ptr %3) #5
  %32 = call i32 @dt_util_get_logo_season()
  store i32 %32, ptr %3, align 4, !tbaa !13
  call void @llvm.lifetime.start.p0(i64 8, ptr %4) #5
  %33 = load i32, ptr %3, align 4, !tbaa !13
  %34 = icmp ne i32 %33, 0
  br i1 %34, label %35, label %38

35:                                               ; preds = %0
  %36 = load i32, ptr %3, align 4, !tbaa !13
  %37 = call noalias ptr (ptr, ...) @g_strdup_printf(ptr noundef @.str.6, i32 noundef %36)
  store ptr %37, ptr %4, align 8, !tbaa !11
  br label %40

38:                                               ; preds = %0
  %39 = call noalias ptr @g_strdup(ptr noundef @.str.1)
  store ptr %39, ptr %4, align 8, !tbaa !11
  br label %40

40:                                               ; preds = %38, %35
  %41 = load ptr, ptr %1, align 8, !tbaa !6
  %42 = call i64 @gtk_about_dialog_get_type() #6
  %43 = call ptr @g_type_check_instance_cast(ptr noundef %41, i64 noundef %42)
  %44 = load ptr, ptr %4, align 8, !tbaa !11
  call void @gtk_about_dialog_set_logo_icon_name(ptr noundef %43, ptr noundef %44)
  %45 = load ptr, ptr %4, align 8, !tbaa !11
  call void @g_free(ptr noundef %45)
  call void @llvm.lifetime.start.p0(i64 8, ptr %5) #5
  %46 = call ptr @dcgettext(ptr noundef null, ptr noundef @.str.7, i32 noundef 5) #5
  store ptr %46, ptr %5, align 8, !tbaa !11
  %47 = load ptr, ptr %1, align 8, !tbaa !6
  %48 = call i64 @gtk_about_dialog_get_type() #6
  %49 = call ptr @g_type_check_instance_cast(ptr noundef %47, i64 noundef %48)
  %50 = call ptr @dcgettext(ptr noundef null, ptr noundef @.str.23, i32 noundef 5) #5
  call void @gtk_about_dialog_add_credit_section(ptr noundef %49, ptr noundef %50, ptr noundef @darktable_show_about_dialog.section1)
  %51 = load ptr, ptr %1, align 8, !tbaa !6
  %52 = call i64 @gtk_about_dialog_get_type() #6
  %53 = call ptr @g_type_check_instance_cast(ptr noundef %51, i64 noundef %52)
  %54 = call ptr @dcgettext(ptr noundef null, ptr noundef @.str.32, i32 noundef 5) #5
  call void @gtk_about_dialog_add_credit_section(ptr noundef %53, ptr noundef %54, ptr noundef @darktable_show_about_dialog.section2)
  %55 = load ptr, ptr %1, align 8, !tbaa !6
  %56 = call i64 @gtk_about_dialog_get_type() #6
  %57 = call ptr @g_type_check_instance_cast(ptr noundef %55, i64 noundef %56)
  %58 = call ptr @dcgettext(ptr noundef null, ptr noundef @.str.35, i32 noundef 5) #5
  call void @gtk_about_dialog_add_credit_section(ptr noundef %57, ptr noundef %58, ptr noundef @darktable_show_about_dialog.section3)
  %59 = load ptr, ptr %1, align 8, !tbaa !6
  %60 = call i64 @gtk_about_dialog_get_type() #6
  %61 = call ptr @g_type_check_instance_cast(ptr noundef %59, i64 noundef %60)
  %62 = call ptr @dcgettext(ptr noundef null, ptr noundef @.str.36, i32 noundef 5) #5
  call void @gtk_about_dialog_add_credit_section(ptr noundef %61, ptr noundef %62, ptr noundef @darktable_show_about_dialog.section4)
  call void @llvm.lifetime.start.p0(i64 16, ptr %6) #5
  %63 = load ptr, ptr %5, align 8, !tbaa !11
  store ptr %63, ptr %6, align 8, !tbaa !11
  %64 = getelementptr inbounds ptr, ptr %6, i64 1
  store ptr null, ptr %64, align 8, !tbaa !11
  %65 = load ptr, ptr %1, align 8, !tbaa !6
  %66 = call i64 @gtk_about_dialog_get_type() #6
  %67 = call ptr @g_type_check_instance_cast(ptr noundef %65, i64 noundef %66)
  %68 = call ptr @dcgettext(ptr noundef null, ptr noundef @.str.37, i32 noundef 5) #5
  %69 = getelementptr inbounds [2 x ptr], ptr %6, i64 0, i64 0
  call void @gtk_about_dialog_add_credit_section(ptr noundef %67, ptr noundef %68, ptr noundef %69)
  %70 = load ptr, ptr %1, align 8, !tbaa !6
  %71 = call i64 @gtk_about_dialog_get_type() #6
  %72 = call ptr @g_type_check_instance_cast(ptr noundef %70, i64 noundef %71)
  %73 = call ptr @dcgettext(ptr noundef null, ptr noundef @.str.38, i32 noundef 5) #5
  call void @gtk_about_dialog_set_translator_credits(ptr noundef %72, ptr noundef %73)
  %74 = load ptr, ptr %1, align 8, !tbaa !6
  %75 = call i64 @gtk_window_get_type() #6
  %76 = call ptr @g_type_check_instance_cast(ptr noundef %74, i64 noundef %75)
  %77 = load ptr, ptr getelementptr inbounds nuw (%struct.darktable_t, ptr @darktable, i32 0, i32 14), align 8, !tbaa !15
  %78 = getelementptr inbounds nuw %struct.dt_gui_gtk_t, ptr %77, i32 0, i32 0
  %79 = load ptr, ptr %78, align 8, !tbaa !52
  %80 = call ptr @dt_ui_main_window(ptr noundef %79)
  %81 = call i64 @gtk_window_get_type() #6
  %82 = call ptr @g_type_check_instance_cast(ptr noundef %80, i64 noundef %81)
  call void @gtk_window_set_transient_for(ptr noundef %76, ptr noundef %82)
  %83 = load ptr, ptr %1, align 8, !tbaa !6
  %84 = call i64 @gtk_dialog_get_type() #6
  %85 = call ptr @g_type_check_instance_cast(ptr noundef %83, i64 noundef %84)
  %86 = call i32 @gtk_dialog_run(ptr noundef %85)
  %87 = load ptr, ptr %1, align 8, !tbaa !6
  call void @gtk_widget_destroy(ptr noundef %87)
  call void @llvm.lifetime.end.p0(i64 16, ptr %6) #5
  call void @llvm.lifetime.end.p0(i64 8, ptr %5) #5
  call void @llvm.lifetime.end.p0(i64 8, ptr %4) #5
  call void @llvm.lifetime.end.p0(i64 4, ptr %3) #5
  call void @llvm.lifetime.end.p0(i64 8, ptr %2) #5
  call void @llvm.lifetime.end.p0(i64 8, ptr %1) #5
  ret void
}