; Function Attrs: nounwind uwtable
define void @darktable_show_about_dialog() local_unnamed_addr #0 {
  %1 = alloca [2 x ptr], align 16
  %2 = tail call ptr @gtk_about_dialog_new() #5
  tail call void @gtk_widget_set_name(ptr noundef %2, ptr noundef nonnull @.str) #5
  %3 = tail call i64 @gtk_about_dialog_get_type() #6
  %4 = tail call ptr @g_type_check_instance_cast(ptr noundef %2, i64 noundef %3) #5
  tail call void @gtk_about_dialog_set_program_name(ptr noundef %4, ptr noundef nonnull @.str.1) #5
  %5 = tail call ptr @g_type_check_instance_cast(ptr noundef %2, i64 noundef %3) #5
  tail call void @gtk_about_dialog_set_version(ptr noundef %5, ptr noundef nonnull @darktable_package_version) #5
  %6 = tail call ptr @dcgettext(ptr noundef null, ptr noundef nonnull @.str.2, i32 noundef 5) #5
  %7 = tail call noalias ptr (ptr, ...) @g_strdup_printf(ptr noundef %6, ptr noundef nonnull @darktable_last_commit_year) #5
  %8 = tail call ptr @g_type_check_instance_cast(ptr noundef %2, i64 noundef %3) #5
  tail call void @gtk_about_dialog_set_copyright(ptr noundef %8, ptr noundef %7) #5
  tail call void @g_free(ptr noundef %7) #5
  %9 = tail call ptr @g_type_check_instance_cast(ptr noundef %2, i64 noundef %3) #5
  %10 = tail call ptr @dcgettext(ptr noundef null, ptr noundef nonnull @.str.3, i32 noundef 5) #5
  tail call void @gtk_about_dialog_set_comments(ptr noundef %9, ptr noundef %10) #5
  %11 = tail call ptr @g_type_check_instance_cast(ptr noundef %2, i64 noundef %3) #5
  tail call void @gtk_about_dialog_set_website(ptr noundef %11, ptr noundef nonnull @.str.4) #5
  %12 = tail call ptr @g_type_check_instance_cast(ptr noundef %2, i64 noundef %3) #5
  tail call void @gtk_about_dialog_set_website_label(ptr noundef %12, ptr noundef nonnull @.str.5) #5
  %13 = tail call i32 @dt_util_get_logo_season() #5
  %.not = icmp eq i32 %13, 0
  br i1 %.not, label %16, label %14

14:                                               ; preds = %0
  %15 = tail call noalias ptr (ptr, ...) @g_strdup_printf(ptr noundef nonnull @.str.6, i32 noundef %13) #5
  br label %18

16:                                               ; preds = %0
  %17 = tail call noalias ptr @g_strdup(ptr noundef nonnull @.str.1) #5
  br label %18

18:                                               ; preds = %16, %14
  %.0 = phi ptr [ %15, %14 ], [ %17, %16 ]
  %19 = tail call ptr @g_type_check_instance_cast(ptr noundef %2, i64 noundef %3) #5
  tail call void @gtk_about_dialog_set_logo_icon_name(ptr noundef %19, ptr noundef %.0) #5
  tail call void @g_free(ptr noundef %.0) #5
  %20 = tail call ptr @dcgettext(ptr noundef null, ptr noundef nonnull @.str.7, i32 noundef 5) #5
  %21 = tail call ptr @g_type_check_instance_cast(ptr noundef %2, i64 noundef %3) #5
  %22 = tail call ptr @dcgettext(ptr noundef null, ptr noundef nonnull @.str.23, i32 noundef 5) #5
  tail call void @gtk_about_dialog_add_credit_section(ptr noundef %21, ptr noundef %22, ptr noundef nonnull @darktable_show_about_dialog.section1) #5
  %23 = tail call ptr @g_type_check_instance_cast(ptr noundef %2, i64 noundef %3) #5
  %24 = tail call ptr @dcgettext(ptr noundef null, ptr noundef nonnull @.str.32, i32 noundef 5) #5
  tail call void @gtk_about_dialog_add_credit_section(ptr noundef %23, ptr noundef %24, ptr noundef nonnull @darktable_show_about_dialog.section2) #5
  %25 = tail call ptr @g_type_check_instance_cast(ptr noundef %2, i64 noundef %3) #5
  %26 = tail call ptr @dcgettext(ptr noundef null, ptr noundef nonnull @.str.35, i32 noundef 5) #5
  tail call void @gtk_about_dialog_add_credit_section(ptr noundef %25, ptr noundef %26, ptr noundef nonnull @darktable_show_about_dialog.section3) #5
  %27 = tail call ptr @g_type_check_instance_cast(ptr noundef %2, i64 noundef %3) #5
  %28 = tail call ptr @dcgettext(ptr noundef null, ptr noundef nonnull @.str.36, i32 noundef 5) #5
  tail call void @gtk_about_dialog_add_credit_section(ptr noundef %27, ptr noundef %28, ptr noundef nonnull @darktable_show_about_dialog.section4) #5
  call void @llvm.lifetime.start.p0(i64 16, ptr nonnull %1) #5
  store ptr %20, ptr %1, align 16, !tbaa !6
  %29 = getelementptr inbounds nuw i8, ptr %1, i64 8
  store ptr null, ptr %29, align 8, !tbaa !6
  %30 = tail call ptr @g_type_check_instance_cast(ptr noundef %2, i64 noundef %3) #5
  %31 = tail call ptr @dcgettext(ptr noundef null, ptr noundef nonnull @.str.37, i32 noundef 5) #5
  call void @gtk_about_dialog_add_credit_section(ptr noundef %30, ptr noundef %31, ptr noundef nonnull %1) #5
  %32 = call ptr @g_type_check_instance_cast(ptr noundef %2, i64 noundef %3) #5
  %33 = call ptr @dcgettext(ptr noundef null, ptr noundef nonnull @.str.38, i32 noundef 5) #5
  call void @gtk_about_dialog_set_translator_credits(ptr noundef %32, ptr noundef %33) #5
  %34 = tail call i64 @gtk_window_get_type() #6
  %35 = call ptr @g_type_check_instance_cast(ptr noundef %2, i64 noundef %34) #5
  %36 = load ptr, ptr getelementptr inbounds nuw (i8, ptr @darktable, i64 104), align 8, !tbaa !11
  %37 = load ptr, ptr %36, align 8, !tbaa !49
  %38 = call ptr @dt_ui_main_window(ptr noundef %37) #5
  %39 = call ptr @g_type_check_instance_cast(ptr noundef %38, i64 noundef %34) #5
  call void @gtk_window_set_transient_for(ptr noundef %35, ptr noundef %39) #5
  %40 = tail call i64 @gtk_dialog_get_type() #6
  %41 = call ptr @g_type_check_instance_cast(ptr noundef %2, i64 noundef %40) #5
  %42 = call i32 @gtk_dialog_run(ptr noundef %41) #5
  call void @gtk_widget_destroy(ptr noundef %2) #5
  call void @llvm.lifetime.end.p0(i64 16, ptr nonnull %1) #5
  ret void
}